target datalayout = "e-m:e-p270:32:32-p271:32:32-p272:64:64-i64:64-i128:128-f80:128-n8:16:32:64-S128"
target triple = "x86_64-pc-linux-gnu"

; Function Attrs: mustprogress uwtable
define hidden noundef ptr @_Z23pj_create_argv_internalP6pj_ctxiPPc(ptr noundef %0, i32 noundef %1, ptr noundef %2) #1 {
  %4 = alloca ptr, align 8
  %5 = alloca ptr, align 8
  %6 = alloca i32, align 4
  %7 = alloca ptr, align 8
  %8 = alloca i32, align 4
  %9 = alloca ptr, align 8
  %10 = alloca i32, align 4
  store ptr %0, ptr %5, align 8
  store i32 %1, ptr %6, align 4
  store ptr %2, ptr %7, align 8
  %11 = load ptr, ptr %5, align 8
  %12 = icmp eq ptr null, %11
  br i1 %12, label %13, label %15

13:                                               ; preds = %3
  %14 = call noundef ptr @_Z18pj_get_default_ctxv()
  store ptr %14, ptr %5, align 8
  br label %15

15:                                               ; preds = %13, %3
  %16 = load ptr, ptr %7, align 8
  %17 = icmp eq ptr null, %16
  br i1 %17, label %18, label %20

18:                                               ; preds = %15
  %19 = load ptr, ptr %5, align 8
  call void @_Z22proj_context_errno_setP6pj_ctxi(ptr noundef %19, i32 noundef 1026)
  store ptr null, ptr %4, align 8
  br label %37

20:                                               ; preds = %15
  %21 = load ptr, ptr %5, align 8
  %22 = call i32 @proj_context_get_use_proj4_init_rules(ptr noundef %21, i32 noundef 0)
  store i32 %22, ptr %8, align 4
  %23 = load ptr, ptr %5, align 8
  %24 = load i32, ptr %6, align 4
  %25 = load ptr, ptr %7, align 8
  %26 = load i32, ptr %8, align 4
  %27 = call noundef ptr @_Z32pj_init_ctx_with_allow_init_epsgP6pj_ctxiPPci(ptr noundef %23, i32 noundef %24, ptr noundef %25, i32 noundef %26)
  store ptr %27, ptr %9, align 8
  %28 = load ptr, ptr %9, align 8
  %29 = call noundef i32 @_ZL21cs2cs_emulation_setupP8PJconsts(ptr noundef %28)
  store i32 %29, ptr %10, align 4
  %30 = load i32, ptr %10, align 4
  %31 = icmp eq i32 0, %30
  br i1 %31, label %32, label %35

32:                                               ; preds = %20
  %33 = load ptr, ptr %9, align 8
  %34 = call ptr @proj_destroy(ptr noundef %33)
  store ptr %34, ptr %4, align 8
  br label %37

35:                                               ; preds = %20
  %36 = load ptr, ptr %9, align 8
  store ptr %36, ptr %4, align 8
  br label %37

37:                                               ; preds = %35, %32, %18
  %38 = load ptr, ptr %4, align 8
  ret ptr %38
}